target datalayout = "e-m:e-p270:32:32-p271:32:32-p272:64:64-i64:64-i128:128-f80:128-n8:16:32:64-S128"
target triple = "x86_64-pc-linux-gnu"

%"struct.folly::ExecutorBlockingList" = type { ptr, %"struct.folly::ExecutorBlockingContext" }
%"struct.folly::ExecutorBlockingContext" = type { i8, i8, ptr, %"class.folly::Range" }
%"class.folly::Range" = type { ptr, ptr }
%"class.folly::ExecutorBlockingGuard" = type { %"struct.folly::ExecutorBlockingList" }

@_ZN5folly22executor_blocking_listE = thread_local global ptr @_ZN5follyL9emptyListE, align 8

; Function Attrs: mustprogress nounwind uwtable
define linkonce_odr void @_ZN5folly5RangeIPKcEC2Ev(ptr noundef nonnull align 8 dereferenceable(16) %0) unnamed_addr #0 comdat align 2 {
  %2 = alloca ptr, align 8
  store ptr %0, ptr %2, align 8, !tbaa !85
  %3 = load ptr, ptr %2, align 8
  %4 = getelementptr inbounds nuw %"class.folly::Range", ptr %3, i32 0, i32 0
  store ptr null, ptr %4, align 8, !tbaa !87
  %5 = getelementptr inbounds nuw %"class.folly::Range", ptr %3, i32 0, i32 1
  store ptr null, ptr %5, align 8, !tbaa !88
  ret void
}

; Function Attrs: inlinehint mustprogress uwtable
define linkonce_odr void @_ZN5folly23ExecutorBlockingContextC2Ev(ptr noundef nonnull align 8 dereferenceable(32) %0) unnamed_addr #4 comdat align 2 {
  %2 = alloca ptr, align 8
  store ptr %0, ptr %2, align 8, !tbaa !65
  %3 = load ptr, ptr %2, align 8
  %4 = getelementptr inbounds nuw %"struct.folly::ExecutorBlockingContext", ptr %3, i32 0, i32 2
  store ptr null, ptr %4, align 8, !tbaa !84
  %5 = getelementptr inbounds nuw %"struct.folly::ExecutorBlockingContext", ptr %3, i32 0, i32 3
  call void @_ZN5folly5RangeIPKcEC2Ev(ptr noundef nonnull align 8 dereferenceable(16) %5)
  ret void
}

; Function Attrs: noinline noreturn nounwind uwtable
define linkonce_odr hidden void @__clang_call_terminate(ptr noundef %0) #6 comdat {
  %2 = call ptr @__cxa_begin_catch(ptr %0) #19
  call void @_ZSt9terminatev() #18
  unreachable
}

; Function Attrs: inlinehint mustprogress uwtable
define linkonce_odr void @_ZN5folly20ExecutorBlockingListC2Ev(ptr noundef nonnull align 8 dereferenceable(40) %0) unnamed_addr #4 comdat align 2 {
  %2 = alloca ptr, align 8
  store ptr %0, ptr %2, align 8, !tbaa !52
  %3 = load ptr, ptr %2, align 8
  %4 = getelementptr inbounds nuw %"struct.folly::ExecutorBlockingList", ptr %3, i32 0, i32 1
  call void @_ZN5folly23ExecutorBlockingContextC2Ev(ptr noundef nonnull align 8 dereferenceable(32) %4)
  ret void
}

; Function Attrs: mustprogress nounwind uwtable
define void @_ZN5folly21ExecutorBlockingGuardC2ENS0_9PermitTagE(ptr noundef nonnull align 8 dereferenceable(40) %0) unnamed_addr #0 align 2 personality ptr @__gxx_personality_v0 {
  %2 = alloca ptr, align 8
  store ptr %0, ptr %2, align 8, !tbaa !78
  %3 = load ptr, ptr %2, align 8
  %4 = getelementptr inbounds nuw %"class.folly::ExecutorBlockingGuard", ptr %3, i32 0, i32 0
  invoke void @_ZN5folly20ExecutorBlockingListC2Ev(ptr noundef nonnull align 8 dereferenceable(40) %4)
          to label %5 unwind label %18

5:                                                ; preds = %1
  %6 = call align 8 ptr @llvm.threadlocal.address.p0(ptr align 8 @_ZN5folly22executor_blocking_listE)
  %7 = load ptr, ptr %6, align 8, !tbaa !52
  %8 = getelementptr inbounds nuw %"class.folly::ExecutorBlockingGuard", ptr %3, i32 0, i32 0
  call void @llvm.memcpy.p0.p0.i64(ptr align 8 %8, ptr align 8 %7, i64 40, i1 false), !tbaa.struct !80
  %9 = call align 8 ptr @llvm.threadlocal.address.p0(ptr align 8 @_ZN5folly22executor_blocking_listE)
  %10 = load ptr, ptr %9, align 8, !tbaa !52
  %11 = getelementptr inbounds nuw %"class.folly::ExecutorBlockingGuard", ptr %3, i32 0, i32 0
  %12 = getelementptr inbounds nuw %"struct.folly::ExecutorBlockingList", ptr %11, i32 0, i32 0
  store ptr %10, ptr %12, align 8, !tbaa !81
  %13 = getelementptr inbounds nuw %"class.folly::ExecutorBlockingGuard", ptr %3, i32 0, i32 0
  %14 = getelementptr inbounds nuw %"struct.folly::ExecutorBlockingList", ptr %13, i32 0, i32 1
  %15 = getelementptr inbounds nuw %"struct.folly::ExecutorBlockingContext", ptr %14, i32 0, i32 0
  store i8 0, ptr %15, align 8, !tbaa !83
  %16 = getelementptr inbounds nuw %"class.folly::ExecutorBlockingGuard", ptr %3, i32 0, i32 0
  %17 = call align 8 ptr @llvm.threadlocal.address.p0(ptr align 8 @_ZN5folly22executor_blocking_listE)
  store ptr %16, ptr %17, align 8, !tbaa !52
  ret void

18:                                               ; preds = %1
  %19 = landingpad { ptr, i32 }
          catch ptr null
  %20 = extractvalue { ptr, i32 } %19, 0
  call void @__clang_call_terminate(ptr %20) #18
  unreachable
}