; Function Attrs: mustprogress nofree norecurse nosync nounwind willreturn memory(readwrite, inaccessiblemem: none) uwtable
define void @_ZN5folly21ExecutorBlockingGuardC2ENS0_9PermitTagE(ptr noundef nonnull align 8 dereferenceable(40) initializes((0, 40)) %0) unnamed_addr #15 align 2 personality ptr @__gxx_personality_v0 {
  %2 = getelementptr inbounds nuw i8, ptr %0, i64 16
  tail call void @llvm.memset.p0.i64(ptr noundef nonnull align 8 dereferenceable(24) %2, i8 0, i64 24, i1 false)
  %3 = tail call align 8 ptr @llvm.threadlocal.address.p0(ptr align 8 @_ZN5folly22executor_blocking_listE)
  %4 = load ptr, ptr %3, align 8, !tbaa !26
  tail call void @llvm.memcpy.p0.p0.i64(ptr noundef nonnull align 8 dereferenceable(40) %0, ptr noundef nonnull align 8 dereferenceable(40) %4, i64 40, i1 false), !tbaa.struct !43
  store ptr %4, ptr %0, align 8, !tbaa !44
  %5 = getelementptr inbounds nuw i8, ptr %0, i64 8
  store i8 0, ptr %5, align 8, !tbaa !46
  store ptr %0, ptr %3, align 8, !tbaa !26
  ret void
}